; Function Attrs: nounwind uwtable
define dso_local i64 @jsonb_send(ptr noundef readonly captures(none) %0) local_unnamed_addr #0 {
  %2 = alloca %struct.StringInfoData, align 8
  %3 = getelementptr inbounds nuw i8, ptr %0, i64 32
  %4 = load i64, ptr %3, align 8
  %5 = inttoptr i64 %4 to ptr
  %6 = tail call ptr @pg_detoast_datum(ptr noundef %5) #11
  call void @llvm.lifetime.start.p0(i64 24, ptr nonnull %2) #11
  %7 = tail call ptr @makeStringInfo() #11
  %8 = getelementptr inbounds nuw i8, ptr %6, i64 4
  %9 = load i32, ptr %6, align 4
  %10 = lshr i32 %9, 2
  %11 = tail call fastcc ptr @JsonbToCStringWorker(ptr noundef %7, ptr noundef nonnull %8, i32 noundef %10, i1 noundef zeroext false)
  call void @pq_begintypsend(ptr noundef nonnull %2) #11
  call void @enlargeStringInfo(ptr noundef nonnull %2, i32 noundef 1) #11
  call void @llvm.experimental.noalias.scope.decl(metadata !4)
  %12 = load ptr, ptr %2, align 8, !alias.scope !4
  %13 = getelementptr inbounds nuw i8, ptr %2, i64 8
  %14 = load i32, ptr %13, align 8, !alias.scope !4
  %15 = sext i32 %14 to i64
  %16 = getelementptr inbounds i8, ptr %12, i64 %15
  store i8 1, ptr %16, align 1, !noalias !4
  %17 = add i32 %14, 1
  store i32 %17, ptr %13, align 8, !alias.scope !4
  %18 = load ptr, ptr %7, align 8
  %19 = getelementptr inbounds nuw i8, ptr %7, i64 8
  %20 = load i32, ptr %19, align 8
  call void @pq_sendtext(ptr noundef nonnull %2, ptr noundef %18, i32 noundef %20) #11
  call void @destroyStringInfo(ptr noundef nonnull %7) #11
  %21 = call ptr @pq_endtypsend(ptr noundef nonnull %2) #11
  %22 = ptrtoint ptr %21 to i64
  call void @llvm.lifetime.end.p0(i64 24, ptr nonnull %2) #11
  ret i64 %22
}